; Function Attrs: mustprogress nofree norecurse nosync nounwind sspstrong willreturn memory(argmem: write) uwtable
define dso_local noundef i32 @cdrom_read_toc_raw(i32 noundef %nb_sectors, ptr noundef writeonly captures(none) initializes((0, 48)) %buf, i32 noundef %msf, i32 noundef %session_num) local_unnamed_addr #0 {
entry:
  %add.ptr = getelementptr i8, ptr %buf, i64 2
  %incdec.ptr = getelementptr i8, ptr %buf, i64 3
  store i8 1, ptr %add.ptr, align 1
  %incdec.ptr1 = getelementptr i8, ptr %buf, i64 4
  store i8 1, ptr %incdec.ptr, align 1
  %incdec.ptr2 = getelementptr i8, ptr %buf, i64 5
  store i8 1, ptr %incdec.ptr1, align 1
  %incdec.ptr3 = getelementptr i8, ptr %buf, i64 6
  store i8 20, ptr %incdec.ptr2, align 1
  %incdec.ptr4 = getelementptr i8, ptr %buf, i64 7
  store i8 0, ptr %incdec.ptr3, align 1
  %incdec.ptr5 = getelementptr i8, ptr %buf, i64 8
  store i8 -96, ptr %incdec.ptr4, align 1
  %incdec.ptr9 = getelementptr i8, ptr %buf, i64 12
  %incdec.ptr10 = getelementptr i8, ptr %buf, i64 13
  store i32 0, ptr %incdec.ptr5, align 1
  store i8 1, ptr %incdec.ptr9, align 1
  %incdec.ptr11 = getelementptr i8, ptr %buf, i64 14
  store i8 0, ptr %incdec.ptr10, align 1
  %incdec.ptr12 = getelementptr i8, ptr %buf, i64 15
  store i8 0, ptr %incdec.ptr11, align 1
  %incdec.ptr13 = getelementptr i8, ptr %buf, i64 16
  store i8 1, ptr %incdec.ptr12, align 1
  %incdec.ptr14 = getelementptr i8, ptr %buf, i64 17
  store i8 20, ptr %incdec.ptr13, align 1
  %incdec.ptr15 = getelementptr i8, ptr %buf, i64 18
  store i8 0, ptr %incdec.ptr14, align 1
  %incdec.ptr16 = getelementptr i8, ptr %buf, i64 19
  store i8 -95, ptr %incdec.ptr15, align 1
  %incdec.ptr20 = getelementptr i8, ptr %buf, i64 23
  %incdec.ptr21 = getelementptr i8, ptr %buf, i64 24
  store i32 0, ptr %incdec.ptr16, align 1
  store i8 1, ptr %incdec.ptr20, align 1
  %incdec.ptr22 = getelementptr i8, ptr %buf, i64 25
  store i8 0, ptr %incdec.ptr21, align 1
  %incdec.ptr23 = getelementptr i8, ptr %buf, i64 26
  store i8 0, ptr %incdec.ptr22, align 1
  %incdec.ptr24 = getelementptr i8, ptr %buf, i64 27
  store i8 1, ptr %incdec.ptr23, align 1
  %incdec.ptr25 = getelementptr i8, ptr %buf, i64 28
  store i8 20, ptr %incdec.ptr24, align 1
  %incdec.ptr26 = getelementptr i8, ptr %buf, i64 29
  store i8 0, ptr %incdec.ptr25, align 1
  %incdec.ptr27 = getelementptr i8, ptr %buf, i64 30
  store i8 -94, ptr %incdec.ptr26, align 1
  %incdec.ptr28 = getelementptr i8, ptr %buf, i64 31
  store i8 0, ptr %incdec.ptr27, align 1
  %incdec.ptr29 = getelementptr i8, ptr %buf, i64 32
  store i8 0, ptr %incdec.ptr28, align 1
  %incdec.ptr30 = getelementptr i8, ptr %buf, i64 33
  store i8 0, ptr %incdec.ptr29, align 1
  %tobool.not = icmp eq i32 %msf, 0
  br i1 %tobool.not, label %if.else, label %if.then

if.then:                                          ; preds = %entry
  %incdec.ptr31 = getelementptr i8, ptr %buf, i64 34
  store i8 0, ptr %incdec.ptr30, align 1
  %add.i = add i32 %nb_sectors, 150
  %div.i = sdiv i32 %add.i, 75
  %div1.i = sdiv i32 %add.i, 4500
  %conv.i = trunc i32 %div1.i to i8
  store i8 %conv.i, ptr %incdec.ptr31, align 1
  %rem.i = srem i32 %div.i, 60
  %conv3.i = trunc nsw i32 %rem.i to i8
  %arrayidx4.i = getelementptr i8, ptr %buf, i64 35
  store i8 %conv3.i, ptr %arrayidx4.i, align 1
  %rem5.i = srem i32 %add.i, 75
  %conv6.i = trunc nsw i32 %rem5.i to i8
  %arrayidx7.i = getelementptr i8, ptr %buf, i64 36
  store i8 %conv6.i, ptr %arrayidx7.i, align 1
  br label %if.end

if.else:                                          ; preds = %entry
  %0 = tail call i32 @llvm.bswap.i32(i32 %nb_sectors)
  store i32 %0, ptr %incdec.ptr30, align 1
  br label %if.end

if.end:                                           ; preds = %if.else, %if.then
  %spec.select = phi i8 [ 0, %if.else ], [ 2, %if.then ]
  %q.0 = getelementptr i8, ptr %buf, i64 37
  %incdec.ptr34 = getelementptr i8, ptr %buf, i64 38
  store i8 1, ptr %q.0, align 1
  %incdec.ptr35 = getelementptr i8, ptr %buf, i64 39
  store i8 20, ptr %incdec.ptr34, align 1
  %incdec.ptr36 = getelementptr i8, ptr %buf, i64 40
  store i8 0, ptr %incdec.ptr35, align 1
  %incdec.ptr37 = getelementptr i8, ptr %buf, i64 41
  store i8 1, ptr %incdec.ptr36, align 1
  %incdec.ptr38 = getelementptr i8, ptr %buf, i64 42
  store i8 0, ptr %incdec.ptr37, align 1
  %incdec.ptr39 = getelementptr i8, ptr %buf, i64 43
  store i8 0, ptr %incdec.ptr38, align 1
  store i8 0, ptr %incdec.ptr39, align 1
  %incdec.ptr40 = getelementptr i8, ptr %buf, i64 44
  store i8 0, ptr %incdec.ptr40, align 1
  %1 = getelementptr i8, ptr %buf, i64 45
  store i8 0, ptr %1, align 1
  %2 = getelementptr i8, ptr %buf, i64 46
  store i8 %spec.select, ptr %2, align 1
  %3 = getelementptr i8, ptr %buf, i64 47
  store i8 0, ptr %3, align 1
  store i16 11776, ptr %buf, align 1
  ret i32 48
}